target datalayout = "e-m:e-p270:32:32-p271:32:32-p272:64:64-i64:64-i128:128-f80:128-n8:16:32:64-S128"
target triple = "x86_64-pc-linux-gnu"

@.str.1 = private unnamed_addr constant [8 x i8] c"realloc\00", align 1

; Function Attrs: nounwind uwtable
define hidden ptr @JLI_MemRealloc(ptr noundef %0, i64 noundef %1) #0 {
  %3 = alloca ptr, align 8
  %4 = alloca i64, align 8
  %5 = alloca ptr, align 8
  store ptr %0, ptr %3, align 8
  store i64 %1, ptr %4, align 8
  %6 = load ptr, ptr %3, align 8
  %7 = load i64, ptr %4, align 8
  %8 = call ptr @realloc(ptr noundef %6, i64 noundef %7) #11
  store ptr %8, ptr %5, align 8
  %9 = load ptr, ptr %5, align 8
  %10 = icmp eq ptr %9, null
  br i1 %10, label %11, label %12

11:                                               ; preds = %2
  call void @perror(ptr noundef @.str.1)
  call void @exit(i32 noundef 1) #10
  unreachable

12:                                               ; preds = %2
  %13 = load ptr, ptr %5, align 8
  ret ptr %13
}