; Function Attrs: nounwind uwtable
define hidden noalias noundef ptr @JLI_MemRealloc(ptr nocapture noundef %0, i64 noundef %1) local_unnamed_addr #0 {
  %3 = tail call ptr @realloc(ptr noundef %0, i64 noundef %1) #20
  %4 = icmp eq ptr %3, null
  br i1 %4, label %5, label %6

5:                                                ; preds = %2
  tail call void @perror(ptr noundef nonnull @.str.1) #18
  tail call void @exit(i32 noundef 1) #19
  unreachable

6:                                                ; preds = %2
  ret ptr %3
}